target datalayout = "e-m:e-p270:32:32-p271:32:32-p272:64:64-i64:64-i128:128-f80:128-n8:16:32:64-S128"
target triple = "x86_64-pc-linux-gnu"

%struct.evthread_lock_callbacks = type { i32, i32, ptr, ptr, ptr, ptr }
%struct.evbuffer_file_segment = type { ptr, i32, i32, i8, i32, ptr, ptr, i64, i64, i64, ptr, ptr }

@evthread_lock_fns_ = external global %struct.evthread_lock_callbacks, align 8
@.str.2 = private unnamed_addr constant [18 x i8] c"%s: munmap failed\00", align 1
@__func__.evbuffer_file_segment_free = private unnamed_addr constant [27 x i8] c"evbuffer_file_segment_free\00", align 1

; Function Attrs: nounwind uwtable
define internal i64 @get_page_size() #0 {
  %1 = call i64 @sysconf(i32 noundef 30) #10
  ret i64 %1
}

; Function Attrs: nounwind uwtable
define void @evbuffer_file_segment_free(ptr noundef %0) #0 {
  %2 = alloca ptr, align 8
  %3 = alloca i32, align 4
  %4 = alloca i32, align 4
  %5 = alloca i64, align 8
  %6 = alloca ptr, align 8
  store ptr %0, ptr %2, align 8
  call void @llvm.lifetime.start.p0(i64 4, ptr %3) #10
  br label %7

7:                                                ; preds = %1
  %8 = load ptr, ptr %2, align 8
  %9 = getelementptr inbounds nuw %struct.evbuffer_file_segment, ptr %8, i32 0, i32 0
  %10 = load ptr, ptr %9, align 8
  %11 = icmp ne ptr %10, null
  br i1 %11, label %12, label %18

12:                                               ; preds = %7
  %13 = load ptr, ptr getelementptr inbounds nuw (%struct.evthread_lock_callbacks, ptr @evthread_lock_fns_, i32 0, i32 4), align 8
  %14 = load ptr, ptr %2, align 8
  %15 = getelementptr inbounds nuw %struct.evbuffer_file_segment, ptr %14, i32 0, i32 0
  %16 = load ptr, ptr %15, align 8
  %17 = call i32 %13(i32 noundef 0, ptr noundef %16)
  br label %18

18:                                               ; preds = %12, %7
  br label %19

19:                                               ; preds = %18
  br label %20

20:                                               ; preds = %19
  %21 = load ptr, ptr %2, align 8
  %22 = getelementptr inbounds nuw %struct.evbuffer_file_segment, ptr %21, i32 0, i32 1
  %23 = load i32, ptr %22, align 8
  %24 = add nsw i32 %23, -1
  store i32 %24, ptr %22, align 8
  store i32 %24, ptr %3, align 4
  br label %25

25:                                               ; preds = %20
  %26 = load ptr, ptr %2, align 8
  %27 = getelementptr inbounds nuw %struct.evbuffer_file_segment, ptr %26, i32 0, i32 0
  %28 = load ptr, ptr %27, align 8
  %29 = icmp ne ptr %28, null
  br i1 %29, label %30, label %36

30:                                               ; preds = %25
  %31 = load ptr, ptr getelementptr inbounds nuw (%struct.evthread_lock_callbacks, ptr @evthread_lock_fns_, i32 0, i32 5), align 8
  %32 = load ptr, ptr %2, align 8
  %33 = getelementptr inbounds nuw %struct.evbuffer_file_segment, ptr %32, i32 0, i32 0
  %34 = load ptr, ptr %33, align 8
  %35 = call i32 %31(i32 noundef 0, ptr noundef %34)
  br label %36

36:                                               ; preds = %30, %25
  br label %37

37:                                               ; preds = %36
  br label %38

38:                                               ; preds = %37
  %39 = load i32, ptr %3, align 4
  %40 = icmp sgt i32 %39, 0
  br i1 %40, label %41, label %42

41:                                               ; preds = %38
  store i32 1, ptr %4, align 4
  br label %134

42:                                               ; preds = %38
  br label %43

43:                                               ; preds = %42
  br label %44

44:                                               ; preds = %43
  br label %45

45:                                               ; preds = %44
  %46 = load ptr, ptr %2, align 8
  %47 = getelementptr inbounds nuw %struct.evbuffer_file_segment, ptr %46, i32 0, i32 3
  %48 = load i8, ptr %47, align 8
  %49 = lshr i8 %48, 1
  %50 = and i8 %49, 1
  %51 = zext i8 %50 to i32
  %52 = icmp ne i32 %51, 0
  br i1 %52, label %53, label %71

53:                                               ; preds = %45
  call void @llvm.lifetime.start.p0(i64 8, ptr %5) #10
  %54 = load ptr, ptr %2, align 8
  %55 = getelementptr inbounds nuw %struct.evbuffer_file_segment, ptr %54, i32 0, i32 7
  %56 = load i64, ptr %55, align 8
  %57 = call i64 @get_page_size()
  %58 = srem i64 %56, %57
  store i64 %58, ptr %5, align 8
  %59 = load ptr, ptr %2, align 8
  %60 = getelementptr inbounds nuw %struct.evbuffer_file_segment, ptr %59, i32 0, i32 5
  %61 = load ptr, ptr %60, align 8
  %62 = load ptr, ptr %2, align 8
  %63 = getelementptr inbounds nuw %struct.evbuffer_file_segment, ptr %62, i32 0, i32 9
  %64 = load i64, ptr %63, align 8
  %65 = load i64, ptr %5, align 8
  %66 = add nsw i64 %64, %65
  %67 = call i32 @munmap(ptr noundef %61, i64 noundef %66) #10
  %68 = icmp eq i32 %67, -1
  br i1 %68, label %69, label %70

69:                                               ; preds = %53
  call void (ptr, ...) @event_warn(ptr noundef @.str.2, ptr noundef @__func__.evbuffer_file_segment_free)
  br label %70

70:                                               ; preds = %69, %53
  call void @llvm.lifetime.end.p0(i64 8, ptr %5) #10
  br label %81

71:                                               ; preds = %45
  %72 = load ptr, ptr %2, align 8
  %73 = getelementptr inbounds nuw %struct.evbuffer_file_segment, ptr %72, i32 0, i32 6
  %74 = load ptr, ptr %73, align 8
  %75 = icmp ne ptr %74, null
  br i1 %75, label %76, label %80

76:                                               ; preds = %71
  %77 = load ptr, ptr %2, align 8
  %78 = getelementptr inbounds nuw %struct.evbuffer_file_segment, ptr %77, i32 0, i32 6
  %79 = load ptr, ptr %78, align 8
  call void @event_mm_free_(ptr noundef %79)
  br label %80

80:                                               ; preds = %76, %71
  br label %81

81:                                               ; preds = %80, %70
  %82 = load ptr, ptr %2, align 8
  %83 = getelementptr inbounds nuw %struct.evbuffer_file_segment, ptr %82, i32 0, i32 2
  %84 = load i32, ptr %83, align 4
  %85 = and i32 %84, 1
  %86 = icmp ne i32 %85, 0
  br i1 %86, label %87, label %97

87:                                               ; preds = %81
  %88 = load ptr, ptr %2, align 8
  %89 = getelementptr inbounds nuw %struct.evbuffer_file_segment, ptr %88, i32 0, i32 4
  %90 = load i32, ptr %89, align 4
  %91 = icmp sge i32 %90, 0
  br i1 %91, label %92, label %97

92:                                               ; preds = %87
  %93 = load ptr, ptr %2, align 8
  %94 = getelementptr inbounds nuw %struct.evbuffer_file_segment, ptr %93, i32 0, i32 4
  %95 = load i32, ptr %94, align 4
  %96 = call i32 @close(i32 noundef %95)
  br label %97

97:                                               ; preds = %92, %87, %81
  %98 = load ptr, ptr %2, align 8
  %99 = getelementptr inbounds nuw %struct.evbuffer_file_segment, ptr %98, i32 0, i32 10
  %100 = load ptr, ptr %99, align 8
  %101 = icmp ne ptr %100, null
  br i1 %101, label %102, label %117

102:                                              ; preds = %97
  %103 = load ptr, ptr %2, align 8
  %104 = getelementptr inbounds nuw %struct.evbuffer_file_segment, ptr %103, i32 0, i32 10
  %105 = load ptr, ptr %104, align 8
  %106 = load ptr, ptr %2, align 8
  %107 = load ptr, ptr %2, align 8
  %108 = getelementptr inbounds nuw %struct.evbuffer_file_segment, ptr %107, i32 0, i32 2
  %109 = load i32, ptr %108, align 4
  %110 = load ptr, ptr %2, align 8
  %111 = getelementptr inbounds nuw %struct.evbuffer_file_segment, ptr %110, i32 0, i32 11
  %112 = load ptr, ptr %111, align 8
  call void %105(ptr noundef %106, i32 noundef %109, ptr noundef %112)
  %113 = load ptr, ptr %2, align 8
  %114 = getelementptr inbounds nuw %struct.evbuffer_file_segment, ptr %113, i32 0, i32 10
  store ptr null, ptr %114, align 8
  %115 = load ptr, ptr %2, align 8
  %116 = getelementptr inbounds nuw %struct.evbuffer_file_segment, ptr %115, i32 0, i32 11
  store ptr null, ptr %116, align 8
  br label %117

117:                                              ; preds = %102, %97
  br label %118

118:                                              ; preds = %117
  call void @llvm.lifetime.start.p0(i64 8, ptr %6) #10
  %119 = load ptr, ptr %2, align 8
  %120 = getelementptr inbounds nuw %struct.evbuffer_file_segment, ptr %119, i32 0, i32 0
  %121 = load ptr, ptr %120, align 8
  store ptr %121, ptr %6, align 8
  %122 = load ptr, ptr %6, align 8
  %123 = icmp ne ptr %122, null
  br i1 %123, label %124, label %130

124:                                              ; preds = %118
  %125 = load ptr, ptr getelementptr inbounds nuw (%struct.evthread_lock_callbacks, ptr @evthread_lock_fns_, i32 0, i32 3), align 8
  %126 = icmp ne ptr %125, null
  br i1 %126, label %127, label %130

127:                                              ; preds = %124
  %128 = load ptr, ptr getelementptr inbounds nuw (%struct.evthread_lock_callbacks, ptr @evthread_lock_fns_, i32 0, i32 3), align 8
  %129 = load ptr, ptr %6, align 8
  call void %128(ptr noundef %129, i32 noundef 0)
  br label %130

130:                                              ; preds = %127, %124, %118
  call void @llvm.lifetime.end.p0(i64 8, ptr %6) #10
  br label %131

131:                                              ; preds = %130
  br label %132

132:                                              ; preds = %131
  %133 = load ptr, ptr %2, align 8
  call void @event_mm_free_(ptr noundef %133)
  store i32 0, ptr %4, align 4
  br label %134

134:                                              ; preds = %132, %41
  call void @llvm.lifetime.end.p0(i64 4, ptr %3) #10
  %135 = load i32, ptr %4, align 4
  switch i32 %135, label %137 [
    i32 0, label %136
    i32 1, label %136
  ]

136:                                              ; preds = %134, %134
  ret void

137:                                              ; preds = %134
  unreachable
}