; Function Attrs: nounwind uwtable
define void @evbuffer_file_segment_free(ptr noundef %0) local_unnamed_addr #1 {
  %2 = load ptr, ptr %0, align 8
  %.not = icmp eq ptr %2, null
  br i1 %.not, label %.thread, label %6

.thread:                                          ; preds = %1
  %3 = getelementptr inbounds nuw i8, ptr %0, i64 8
  %4 = load i32, ptr %3, align 8
  %5 = add nsw i32 %4, -1
  store i32 %5, ptr %3, align 8
  br label %15

6:                                                ; preds = %1
  %7 = load ptr, ptr getelementptr inbounds nuw (i8, ptr @evthread_lock_fns_, i64 24), align 8
  %8 = tail call i32 %7(i32 noundef 0, ptr noundef nonnull %2) #16
  %.pr = load ptr, ptr %0, align 8
  %9 = getelementptr inbounds nuw i8, ptr %0, i64 8
  %10 = load i32, ptr %9, align 8
  %11 = add nsw i32 %10, -1
  store i32 %11, ptr %9, align 8
  %.not33 = icmp eq ptr %.pr, null
  br i1 %.not33, label %15, label %12

12:                                               ; preds = %6
  %13 = load ptr, ptr getelementptr inbounds nuw (i8, ptr @evthread_lock_fns_, i64 32), align 8
  %14 = tail call i32 %13(i32 noundef 0, ptr noundef nonnull %.pr) #16
  br label %15

15:                                               ; preds = %.thread, %12, %6
  %16 = phi i32 [ %4, %.thread ], [ %10, %12 ], [ %10, %6 ]
  %17 = icmp sgt i32 %16, 1
  br i1 %17, label %63, label %18

18:                                               ; preds = %15
  %19 = getelementptr inbounds nuw i8, ptr %0, i64 16
  %20 = load i8, ptr %19, align 8
  %21 = and i8 %20, 2
  %.not34 = icmp eq i8 %21, 0
  br i1 %.not34, label %35, label %22

22:                                               ; preds = %18
  %23 = getelementptr inbounds nuw i8, ptr %0, i64 40
  %24 = load i64, ptr %23, align 8
  %25 = tail call i64 @sysconf(i32 noundef 30) #16
  %26 = srem i64 %24, %25
  %27 = getelementptr inbounds nuw i8, ptr %0, i64 24
  %28 = load ptr, ptr %27, align 8
  %29 = getelementptr inbounds nuw i8, ptr %0, i64 56
  %30 = load i64, ptr %29, align 8
  %31 = add nsw i64 %30, %26
  %32 = tail call i32 @munmap(ptr noundef %28, i64 noundef %31) #16
  %33 = icmp eq i32 %32, -1
  br i1 %33, label %34, label %39

34:                                               ; preds = %22
  tail call void (ptr, ...) @event_warn(ptr noundef nonnull @.str.2, ptr noundef nonnull @__func__.evbuffer_file_segment_free) #16
  br label %39

35:                                               ; preds = %18
  %36 = getelementptr inbounds nuw i8, ptr %0, i64 32
  %37 = load ptr, ptr %36, align 8
  %.not35 = icmp eq ptr %37, null
  br i1 %.not35, label %39, label %38

38:                                               ; preds = %35
  tail call void @event_mm_free_(ptr noundef nonnull %37) #16
  br label %39

39:                                               ; preds = %22, %34, %35, %38
  %40 = getelementptr inbounds nuw i8, ptr %0, i64 12
  %41 = load i32, ptr %40, align 4
  %42 = and i32 %41, 1
  %.not36 = icmp eq i32 %42, 0
  br i1 %.not36, label %49, label %43

43:                                               ; preds = %39
  %44 = getelementptr inbounds nuw i8, ptr %0, i64 20
  %45 = load i32, ptr %44, align 4
  %46 = icmp sgt i32 %45, -1
  br i1 %46, label %47, label %49

47:                                               ; preds = %43
  %48 = tail call i32 @close(i32 noundef %45) #16
  br label %49

49:                                               ; preds = %47, %43, %39
  %50 = getelementptr inbounds nuw i8, ptr %0, i64 64
  %51 = load ptr, ptr %50, align 8
  %.not37 = icmp eq ptr %51, null
  br i1 %.not37, label %56, label %52

52:                                               ; preds = %49
  %53 = load i32, ptr %40, align 4
  %54 = getelementptr inbounds nuw i8, ptr %0, i64 72
  %55 = load ptr, ptr %54, align 8
  tail call void %51(ptr noundef nonnull %0, i32 noundef %53, ptr noundef %55) #16
  tail call void @llvm.memset.p0.i64(ptr noundef nonnull align 8 dereferenceable(16) %50, i8 0, i64 16, i1 false)
  br label %56

56:                                               ; preds = %49, %52
  %57 = load ptr, ptr %0, align 8
  %58 = icmp ne ptr %57, null
  %59 = load ptr, ptr getelementptr inbounds nuw (i8, ptr @evthread_lock_fns_, i64 16), align 8
  %60 = icmp ne ptr %59, null
  %or.cond = select i1 %58, i1 %60, i1 false
  br i1 %or.cond, label %61, label %62

61:                                               ; preds = %56
  tail call void %59(ptr noundef nonnull %57, i32 noundef 0) #16
  br label %62

62:                                               ; preds = %61, %56
  tail call void @event_mm_free_(ptr noundef nonnull %0) #16
  br label %63

63:                                               ; preds = %15, %62
  ret void
}